target datalayout = "e-m:e-p270:32:32-p271:32:32-p272:64:64-i64:64-i128:128-f80:128-n8:16:32:64-S128"
target triple = "x86_64-unknown-linux-gnu"

%class.btMultiBodyPoint2Point = type { %class.btMultiBodyConstraint, ptr, ptr, %class.btVector3, %class.btVector3 }
%class.btMultiBodyConstraint = type { ptr, ptr, ptr, i32, i32, i32, i32, i32, i32, i32, i8, i32, float, %class.btAlignedObjectArray }
%class.btAlignedObjectArray = type <{ %class.btAlignedAllocator, [3 x i8], i32, i32, [4 x i8], ptr, i8, [7 x i8] }>
%class.btAlignedAllocator = type { i8 }
%class.btVector3 = type { [4 x float] }

; Function Attrs: mustprogress uwtable
define linkonce_odr dso_local void @_ZN18btAlignedAllocatorIfLj16EE10deallocateEPf(ptr noundef nonnull align 1 dereferenceable(1) %this, ptr noundef %ptr) #2 comdat align 2 {
entry:
  %this.addr = alloca ptr, align 8
  %ptr.addr = alloca ptr, align 8
  store ptr %this, ptr %this.addr, align 8
  store ptr %ptr, ptr %ptr.addr, align 8
  %0 = load ptr, ptr %ptr.addr, align 8
  call void @_Z21btAlignedFreeInternalPv(ptr noundef %0)
  ret void
}

; Function Attrs: mustprogress uwtable
define linkonce_odr dso_local noundef ptr @_ZN18btAlignedAllocatorIfLj16EE8allocateEiPPKf(ptr noundef nonnull align 1 dereferenceable(1) %this, i32 noundef %n, ptr noundef %hint) #2 comdat align 2 {
entry:
  %this.addr = alloca ptr, align 8
  %n.addr = alloca i32, align 4
  %hint.addr = alloca ptr, align 8
  store ptr %this, ptr %this.addr, align 8
  store i32 %n, ptr %n.addr, align 4
  store ptr %hint, ptr %hint.addr, align 8
  %0 = load i32, ptr %n.addr, align 4
  %conv = sext i32 %0 to i64
  %mul = mul i64 4, %conv
  %call = call noundef ptr @_Z22btAlignedAllocInternalmi(i64 noundef %mul, i32 noundef 16)
  ret ptr %call
}

; Function Attrs: mustprogress uwtable
define linkonce_odr dso_local void @_ZN20btAlignedObjectArrayIfE10deallocateEv(ptr noundef nonnull align 8 dereferenceable(25) %this) #2 comdat align 2 {
entry:
  %this.addr = alloca ptr, align 8
  store ptr %this, ptr %this.addr, align 8
  %this1 = load ptr, ptr %this.addr, align 8
  %m_data = getelementptr inbounds %class.btAlignedObjectArray, ptr %this1, i32 0, i32 5
  %0 = load ptr, ptr %m_data, align 8
  %tobool = icmp ne ptr %0, null
  br i1 %tobool, label %if.then, label %if.end6

if.then:                                          ; preds = %entry
  %m_ownsMemory = getelementptr inbounds %class.btAlignedObjectArray, ptr %this1, i32 0, i32 6
  %1 = load i8, ptr %m_ownsMemory, align 8
  %tobool2 = trunc i8 %1 to i1
  br i1 %tobool2, label %if.then3, label %if.end

if.then3:                                         ; preds = %if.then
  %m_allocator = getelementptr inbounds %class.btAlignedObjectArray, ptr %this1, i32 0, i32 0
  %m_data4 = getelementptr inbounds %class.btAlignedObjectArray, ptr %this1, i32 0, i32 5
  %2 = load ptr, ptr %m_data4, align 8
  call void @_ZN18btAlignedAllocatorIfLj16EE10deallocateEPf(ptr noundef nonnull align 1 dereferenceable(1) %m_allocator, ptr noundef %2)
  br label %if.end

if.end:                                           ; preds = %if.then3, %if.then
  %m_data5 = getelementptr inbounds %class.btAlignedObjectArray, ptr %this1, i32 0, i32 5
  store ptr null, ptr %m_data5, align 8
  br label %if.end6

if.end6:                                          ; preds = %if.end, %entry
  ret void
}

; Function Attrs: mustprogress nounwind uwtable
define linkonce_odr dso_local void @_ZN20btAlignedObjectArrayIfE7destroyEii(ptr noundef nonnull align 8 dereferenceable(25) %this, i32 noundef %first, i32 noundef %last) #1 comdat align 2 {
entry:
  %this.addr = alloca ptr, align 8
  %first.addr = alloca i32, align 4
  %last.addr = alloca i32, align 4
  %i = alloca i32, align 4
  store ptr %this, ptr %this.addr, align 8
  store i32 %first, ptr %first.addr, align 4
  store i32 %last, ptr %last.addr, align 4
  %0 = load i32, ptr %first.addr, align 4
  store i32 %0, ptr %i, align 4
  br label %for.cond

for.cond:                                         ; preds = %for.inc, %entry
  %1 = load i32, ptr %i, align 4
  %2 = load i32, ptr %last.addr, align 4
  %cmp = icmp slt i32 %1, %2
  br i1 %cmp, label %for.body, label %for.end

for.body:                                         ; preds = %for.cond
  br label %for.inc

for.inc:                                          ; preds = %for.body
  %3 = load i32, ptr %i, align 4
  %inc = add nsw i32 %3, 1
  store i32 %inc, ptr %i, align 4
  br label %for.cond, !llvm.loop !12

for.end:                                          ; preds = %for.cond
  ret void
}

; Function Attrs: mustprogress nounwind uwtable
define linkonce_odr dso_local void @_ZNK20btAlignedObjectArrayIfE4copyEiiPf(ptr noundef nonnull align 8 dereferenceable(25) %this, i32 noundef %start, i32 noundef %end, ptr noundef %dest) #1 comdat align 2 {
entry:
  %this.addr = alloca ptr, align 8
  %start.addr = alloca i32, align 4
  %end.addr = alloca i32, align 4
  %dest.addr = alloca ptr, align 8
  %i = alloca i32, align 4
  store ptr %this, ptr %this.addr, align 8
  store i32 %start, ptr %start.addr, align 4
  store i32 %end, ptr %end.addr, align 4
  store ptr %dest, ptr %dest.addr, align 8
  %this1 = load ptr, ptr %this.addr, align 8
  %0 = load i32, ptr %start.addr, align 4
  store i32 %0, ptr %i, align 4
  br label %for.cond

for.cond:                                         ; preds = %for.inc, %entry
  %1 = load i32, ptr %i, align 4
  %2 = load i32, ptr %end.addr, align 4
  %cmp = icmp slt i32 %1, %2
  br i1 %cmp, label %for.body, label %for.end

for.body:                                         ; preds = %for.cond
  %3 = load ptr, ptr %dest.addr, align 8
  %4 = load i32, ptr %i, align 4
  %idxprom = sext i32 %4 to i64
  %arrayidx = getelementptr inbounds float, ptr %3, i64 %idxprom
  %m_data = getelementptr inbounds %class.btAlignedObjectArray, ptr %this1, i32 0, i32 5
  %5 = load ptr, ptr %m_data, align 8
  %6 = load i32, ptr %i, align 4
  %idxprom2 = sext i32 %6 to i64
  %arrayidx3 = getelementptr inbounds float, ptr %5, i64 %idxprom2
  %7 = load float, ptr %arrayidx3, align 4
  store float %7, ptr %arrayidx, align 4
  br label %for.inc

for.inc:                                          ; preds = %for.body
  %8 = load i32, ptr %i, align 4
  %inc = add nsw i32 %8, 1
  store i32 %inc, ptr %i, align 4
  br label %for.cond, !llvm.loop !11

for.end:                                          ; preds = %for.cond
  ret void
}

; Function Attrs: mustprogress uwtable
define linkonce_odr dso_local noundef ptr @_ZN20btAlignedObjectArrayIfE8allocateEi(ptr noundef nonnull align 8 dereferenceable(25) %this, i32 noundef %size) #2 comdat align 2 {
entry:
  %retval = alloca ptr, align 8
  %this.addr = alloca ptr, align 8
  %size.addr = alloca i32, align 4
  store ptr %this, ptr %this.addr, align 8
  store i32 %size, ptr %size.addr, align 4
  %this1 = load ptr, ptr %this.addr, align 8
  %0 = load i32, ptr %size.addr, align 4
  %tobool = icmp ne i32 %0, 0
  br i1 %tobool, label %if.then, label %if.end

if.then:                                          ; preds = %entry
  %m_allocator = getelementptr inbounds %class.btAlignedObjectArray, ptr %this1, i32 0, i32 0
  %1 = load i32, ptr %size.addr, align 4
  %call = call noundef ptr @_ZN18btAlignedAllocatorIfLj16EE8allocateEiPPKf(ptr noundef nonnull align 1 dereferenceable(1) %m_allocator, i32 noundef %1, ptr noundef null)
  store ptr %call, ptr %retval, align 8
  br label %return

if.end:                                           ; preds = %entry
  store ptr null, ptr %retval, align 8
  br label %return

return:                                           ; preds = %if.end, %if.then
  %2 = load ptr, ptr %retval, align 8
  ret ptr %2
}

; Function Attrs: mustprogress nounwind uwtable
define linkonce_odr dso_local noundef i32 @_ZNK20btAlignedObjectArrayIfE8capacityEv(ptr noundef nonnull align 8 dereferenceable(25) %this) #1 comdat align 2 {
entry:
  %this.addr = alloca ptr, align 8
  store ptr %this, ptr %this.addr, align 8
  %this1 = load ptr, ptr %this.addr, align 8
  %m_capacity = getelementptr inbounds %class.btAlignedObjectArray, ptr %this1, i32 0, i32 3
  %0 = load i32, ptr %m_capacity, align 8
  ret i32 %0
}

; Function Attrs: mustprogress uwtable
define linkonce_odr dso_local void @_ZN20btAlignedObjectArrayIfE7reserveEi(ptr noundef nonnull align 8 dereferenceable(25) %this, i32 noundef %_Count) #2 comdat align 2 {
entry:
  %this.addr = alloca ptr, align 8
  %_Count.addr = alloca i32, align 4
  %s = alloca ptr, align 8
  store ptr %this, ptr %this.addr, align 8
  store i32 %_Count, ptr %_Count.addr, align 4
  %this1 = load ptr, ptr %this.addr, align 8
  %call = call noundef i32 @_ZNK20btAlignedObjectArrayIfE8capacityEv(ptr noundef nonnull align 8 dereferenceable(25) %this1)
  %0 = load i32, ptr %_Count.addr, align 4
  %cmp = icmp slt i32 %call, %0
  br i1 %cmp, label %if.then, label %if.end

if.then:                                          ; preds = %entry
  %1 = load i32, ptr %_Count.addr, align 4
  %call2 = call noundef ptr @_ZN20btAlignedObjectArrayIfE8allocateEi(ptr noundef nonnull align 8 dereferenceable(25) %this1, i32 noundef %1)
  store ptr %call2, ptr %s, align 8
  %call3 = call noundef i32 @_ZNK20btAlignedObjectArrayIfE4sizeEv(ptr noundef nonnull align 8 dereferenceable(25) %this1)
  %2 = load ptr, ptr %s, align 8
  call void @_ZNK20btAlignedObjectArrayIfE4copyEiiPf(ptr noundef nonnull align 8 dereferenceable(25) %this1, i32 noundef 0, i32 noundef %call3, ptr noundef %2)
  %call4 = call noundef i32 @_ZNK20btAlignedObjectArrayIfE4sizeEv(ptr noundef nonnull align 8 dereferenceable(25) %this1)
  call void @_ZN20btAlignedObjectArrayIfE7destroyEii(ptr noundef nonnull align 8 dereferenceable(25) %this1, i32 noundef 0, i32 noundef %call4)
  call void @_ZN20btAlignedObjectArrayIfE10deallocateEv(ptr noundef nonnull align 8 dereferenceable(25) %this1)
  %m_ownsMemory = getelementptr inbounds %class.btAlignedObjectArray, ptr %this1, i32 0, i32 6
  store i8 1, ptr %m_ownsMemory, align 8
  %3 = load ptr, ptr %s, align 8
  %m_data = getelementptr inbounds %class.btAlignedObjectArray, ptr %this1, i32 0, i32 5
  store ptr %3, ptr %m_data, align 8
  %4 = load i32, ptr %_Count.addr, align 4
  %m_capacity = getelementptr inbounds %class.btAlignedObjectArray, ptr %this1, i32 0, i32 3
  store i32 %4, ptr %m_capacity, align 8
  br label %if.end

if.end:                                           ; preds = %if.then, %entry
  ret void
}

; Function Attrs: mustprogress nounwind uwtable
define linkonce_odr dso_local noundef i32 @_ZNK20btAlignedObjectArrayIfE4sizeEv(ptr noundef nonnull align 8 dereferenceable(25) %this) #1 comdat align 2 {
entry:
  %this.addr = alloca ptr, align 8
  store ptr %this, ptr %this.addr, align 8
  %this1 = load ptr, ptr %this.addr, align 8
  %m_size = getelementptr inbounds %class.btAlignedObjectArray, ptr %this1, i32 0, i32 2
  %0 = load i32, ptr %m_size, align 4
  ret i32 %0
}

; Function Attrs: mustprogress uwtable
define linkonce_odr dso_local void @_ZN20btAlignedObjectArrayIfE6resizeEiRKf(ptr noundef nonnull align 8 dereferenceable(25) %this, i32 noundef %newsize, ptr noundef nonnull align 4 dereferenceable(4) %fillData) #2 comdat align 2 {
entry:
  %this.addr = alloca ptr, align 8
  %newsize.addr = alloca i32, align 4
  %fillData.addr = alloca ptr, align 8
  %curSize = alloca i32, align 4
  %i = alloca i32, align 4
  %i5 = alloca i32, align 4
  store ptr %this, ptr %this.addr, align 8
  store i32 %newsize, ptr %newsize.addr, align 4
  store ptr %fillData, ptr %fillData.addr, align 8
  %this1 = load ptr, ptr %this.addr, align 8
  %call = call noundef i32 @_ZNK20btAlignedObjectArrayIfE4sizeEv(ptr noundef nonnull align 8 dereferenceable(25) %this1)
  store i32 %call, ptr %curSize, align 4
  %0 = load i32, ptr %newsize.addr, align 4
  %1 = load i32, ptr %curSize, align 4
  %cmp = icmp slt i32 %0, %1
  br i1 %cmp, label %if.then, label %if.else

if.then:                                          ; preds = %entry
  %2 = load i32, ptr %newsize.addr, align 4
  store i32 %2, ptr %i, align 4
  br label %for.cond

for.cond:                                         ; preds = %for.inc, %if.then
  %3 = load i32, ptr %i, align 4
  %4 = load i32, ptr %curSize, align 4
  %cmp2 = icmp slt i32 %3, %4
  br i1 %cmp2, label %for.body, label %for.end

for.body:                                         ; preds = %for.cond
  br label %for.inc

for.inc:                                          ; preds = %for.body
  %5 = load i32, ptr %i, align 4
  %inc = add nsw i32 %5, 1
  store i32 %inc, ptr %i, align 4
  br label %for.cond, !llvm.loop !5

for.end:                                          ; preds = %for.cond
  br label %if.end15

if.else:                                          ; preds = %entry
  %6 = load i32, ptr %newsize.addr, align 4
  %7 = load i32, ptr %curSize, align 4
  %cmp3 = icmp sgt i32 %6, %7
  br i1 %cmp3, label %if.then4, label %if.end

if.then4:                                         ; preds = %if.else
  %8 = load i32, ptr %newsize.addr, align 4
  call void @_ZN20btAlignedObjectArrayIfE7reserveEi(ptr noundef nonnull align 8 dereferenceable(25) %this1, i32 noundef %8)
  br label %if.end

if.end:                                           ; preds = %if.then4, %if.else
  %9 = load i32, ptr %curSize, align 4
  store i32 %9, ptr %i5, align 4
  br label %for.cond6

for.cond6:                                        ; preds = %for.inc12, %if.end
  %10 = load i32, ptr %i5, align 4
  %11 = load i32, ptr %newsize.addr, align 4
  %cmp7 = icmp slt i32 %10, %11
  br i1 %cmp7, label %for.body8, label %for.end14

for.body8:                                        ; preds = %for.cond6
  %m_data9 = getelementptr inbounds %class.btAlignedObjectArray, ptr %this1, i32 0, i32 5
  %12 = load ptr, ptr %m_data9, align 8
  %13 = load i32, ptr %i5, align 4
  %idxprom10 = sext i32 %13 to i64
  %arrayidx11 = getelementptr inbounds float, ptr %12, i64 %idxprom10
  %14 = load ptr, ptr %fillData.addr, align 8
  %15 = load float, ptr %14, align 4
  store float %15, ptr %arrayidx11, align 4
  br label %for.inc12

for.inc12:                                        ; preds = %for.body8
  %16 = load i32, ptr %i5, align 4
  %inc13 = add nsw i32 %16, 1
  store i32 %inc13, ptr %i5, align 4
  br label %for.cond6, !llvm.loop !7

for.end14:                                        ; preds = %for.cond6
  br label %if.end15

if.end15:                                         ; preds = %for.end14, %for.end
  %17 = load i32, ptr %newsize.addr, align 4
  %m_size = getelementptr inbounds %class.btAlignedObjectArray, ptr %this1, i32 0, i32 2
  store i32 %17, ptr %m_size, align 4
  ret void
}

; Function Attrs: mustprogress uwtable
define dso_local void @_ZN22btMultiBodyPoint2PointC2EP11btMultiBodyiS1_iRK9btVector3S4_(ptr noundef nonnull align 8 dereferenceable(144) %this, ptr noundef %bodyA, i32 noundef %linkA, ptr noundef %bodyB, i32 noundef %linkB, ptr noundef nonnull align 4 dereferenceable(16) %pivotInA, ptr noundef nonnull align 4 dereferenceable(16) %pivotInB) unnamed_addr #2 align 2 personality ptr @__gxx_personality_v0 {
entry:
  %this.addr = alloca ptr, align 8
  %bodyA.addr = alloca ptr, align 8
  %linkA.addr = alloca i32, align 4
  %bodyB.addr = alloca ptr, align 8
  %linkB.addr = alloca i32, align 4
  %pivotInA.addr = alloca ptr, align 8
  %pivotInB.addr = alloca ptr, align 8
  %ref.tmp = alloca float, align 4
  %exn.slot = alloca ptr, align 8
  %ehselector.slot = alloca i32, align 4
  store ptr %this, ptr %this.addr, align 8
  store ptr %bodyA, ptr %bodyA.addr, align 8
  store i32 %linkA, ptr %linkA.addr, align 4
  store ptr %bodyB, ptr %bodyB.addr, align 8
  store i32 %linkB, ptr %linkB.addr, align 4
  store ptr %pivotInA, ptr %pivotInA.addr, align 8
  store ptr %pivotInB, ptr %pivotInB.addr, align 8
  %this1 = load ptr, ptr %this.addr, align 8
  %0 = load ptr, ptr %bodyA.addr, align 8
  %1 = load ptr, ptr %bodyB.addr, align 8
  %2 = load i32, ptr %linkA.addr, align 4
  %3 = load i32, ptr %linkB.addr, align 4
  call void @_ZN21btMultiBodyConstraintC2EP11btMultiBodyS1_iiibi(ptr noundef nonnull align 8 dereferenceable(96) %this1, ptr noundef %0, ptr noundef %1, i32 noundef %2, i32 noundef %3, i32 noundef 3, i1 noundef zeroext false, i32 noundef 6)
  store ptr getelementptr inbounds ({ [15 x ptr] }, ptr @_ZTV22btMultiBodyPoint2Point, i32 0, i32 0, i32 2), ptr %this1, align 8
  %m_rigidBodyA = getelementptr inbounds %class.btMultiBodyPoint2Point, ptr %this1, i32 0, i32 1
  store ptr null, ptr %m_rigidBodyA, align 8
  %m_rigidBodyB = getelementptr inbounds %class.btMultiBodyPoint2Point, ptr %this1, i32 0, i32 2
  store ptr null, ptr %m_rigidBodyB, align 8
  %m_pivotInA = getelementptr inbounds %class.btMultiBodyPoint2Point, ptr %this1, i32 0, i32 3
  %4 = load ptr, ptr %pivotInA.addr, align 8
  call void @llvm.memcpy.p0.p0.i64(ptr align 8 %m_pivotInA, ptr align 4 %4, i64 16, i1 false)
  %m_pivotInB = getelementptr inbounds %class.btMultiBodyPoint2Point, ptr %this1, i32 0, i32 4
  %5 = load ptr, ptr %pivotInB.addr, align 8
  call void @llvm.memcpy.p0.p0.i64(ptr align 8 %m_pivotInB, ptr align 4 %5, i64 16, i1 false)
  %m_data = getelementptr inbounds %class.btMultiBodyConstraint, ptr %this1, i32 0, i32 13
  store float 0.000000e+00, ptr %ref.tmp, align 4
  invoke void @_ZN20btAlignedObjectArrayIfE6resizeEiRKf(ptr noundef nonnull align 8 dereferenceable(25) %m_data, i32 noundef 3, ptr noundef nonnull align 4 dereferenceable(4) %ref.tmp)
          to label %invoke.cont unwind label %lpad

invoke.cont:                                      ; preds = %entry
  ret void

lpad:                                             ; preds = %entry
  %6 = landingpad { ptr, i32 }
          cleanup
  %7 = extractvalue { ptr, i32 } %6, 0
  store ptr %7, ptr %exn.slot, align 8
  %8 = extractvalue { ptr, i32 } %6, 1
  store i32 %8, ptr %ehselector.slot, align 4
  call void @_ZN21btMultiBodyConstraintD2Ev(ptr noundef nonnull align 8 dereferenceable(96) %this1) #10
  br label %eh.resume

eh.resume:                                        ; preds = %lpad
  %exn = load ptr, ptr %exn.slot, align 8
  %sel = load i32, ptr %ehselector.slot, align 4
  %lpad.val = insertvalue { ptr, i32 } poison, ptr %exn, 0
  %lpad.val2 = insertvalue { ptr, i32 } %lpad.val, i32 %sel, 1
  resume { ptr, i32 } %lpad.val2
}